target datalayout = "e-m:e-p270:32:32-p271:32:32-p272:64:64-i64:64-i128:128-f80:128-n8:16:32:64-S128"
target triple = "x86_64-pc-linux-gnu"

%struct.ident_t = type { i32, i32, i32, i32, ptr }
%"struct.faiss::NSG" = type { i32, i32, i32, i32, i32, i32, %"class.std::shared_ptr", i8, %"struct.faiss::RandomGenerator" }
%"class.std::shared_ptr" = type { %"class.std::__shared_ptr" }
%"class.std::__shared_ptr" = type { ptr, %"class.std::__shared_count" }
%"class.std::__shared_count" = type { ptr }
%"struct.faiss::RandomGenerator" = type { %"class.std::mersenne_twister_engine" }
%"class.std::mersenne_twister_engine" = type { [624 x i64], i64 }
%"struct.std::_Vector_base.14" = type { %"struct.std::_Vector_base<int, std::allocator<int>>::_Vector_impl" }
%"struct.std::_Vector_base<int, std::allocator<int>>::_Vector_impl" = type { %"struct.std::_Vector_base<int, std::allocator<int>>::_Vector_impl_data" }
%"struct.std::_Vector_base<int, std::allocator<int>>::_Vector_impl_data" = type { ptr, ptr, ptr }
%"struct.faiss::nsg::Graph" = type <{ ptr, ptr, i32, i32, i8, [7 x i8] }>
%"struct.faiss::nsg::Graph.20" = type <{ ptr, ptr, i32, i32, i8, [7 x i8] }>
%"struct.faiss::nsg::Node" = type { i32, float }

@1 = private unnamed_addr constant %struct.ident_t { i32 0, i32 514, i32 0, i32 22, ptr @0 }, align 8

; Function Attrs: mustprogress nounwind uwtable
define linkonce_odr noundef ptr @_ZNKSt12__shared_ptrIN5faiss3nsg5GraphIiEELN9__gnu_cxx12_Lock_policyE2EE3getEv(ptr noundef nonnull align 8 dereferenceable(16) %0) #1 comdat align 2 {
  %2 = alloca ptr, align 8
  store ptr %0, ptr %2, align 8, !tbaa !84
  %3 = load ptr, ptr %2, align 8
  %4 = getelementptr inbounds nuw %"class.std::__shared_ptr", ptr %3, i32 0, i32 0
  %5 = load ptr, ptr %4, align 8, !tbaa !86
  ret ptr %5
}

; Function Attrs: mustprogress nounwind uwtable
define linkonce_odr noundef ptr @_ZNKSt19__shared_ptr_accessIN5faiss3nsg5GraphIiEELN9__gnu_cxx12_Lock_policyE2ELb0ELb0EE6_M_getEv(ptr noundef nonnull align 1 dereferenceable(1) %0) #1 comdat align 2 {
  %2 = alloca ptr, align 8
  store ptr %0, ptr %2, align 8, !tbaa !101
  %3 = load ptr, ptr %2, align 8
  %4 = call noundef ptr @_ZNKSt12__shared_ptrIN5faiss3nsg5GraphIiEELN9__gnu_cxx12_Lock_policyE2EE3getEv(ptr noundef nonnull align 8 dereferenceable(16) %3) #20
  ret ptr %4
}

; Function Attrs: noinline noreturn nounwind uwtable
define linkonce_odr hidden void @__clang_call_terminate(ptr noundef %0) #10 comdat {
  %2 = call ptr @__cxa_begin_catch(ptr %0) #20
  call void @_ZSt9terminatev() #24
  unreachable
}

; Function Attrs: mustprogress nounwind uwtable
define linkonce_odr noundef nonnull align 4 dereferenceable(4) ptr @_ZNSt6vectorIiSaIiEEixEm(ptr noundef nonnull align 8 dereferenceable(24) %0, i64 noundef %1) #1 comdat align 2 {
  %3 = alloca ptr, align 8
  %4 = alloca i64, align 8
  store ptr %0, ptr %3, align 8, !tbaa !144
  store i64 %1, ptr %4, align 8, !tbaa !28
  %5 = load ptr, ptr %3, align 8
  %6 = getelementptr inbounds nuw %"struct.std::_Vector_base.14", ptr %5, i32 0, i32 0
  %7 = getelementptr inbounds nuw %"struct.std::_Vector_base<int, std::allocator<int>>::_Vector_impl_data", ptr %6, i32 0, i32 0
  %8 = load ptr, ptr %7, align 8, !tbaa !146
  %9 = load i64, ptr %4, align 8, !tbaa !28
  %10 = getelementptr inbounds nuw i32, ptr %8, i64 %9
  ret ptr %10
}

; Function Attrs: inlinehint mustprogress nounwind uwtable
define linkonce_odr noundef nonnull align 4 dereferenceable(4) ptr @_ZN5faiss3nsg5GraphIiE2atEii(ptr noundef nonnull align 8 dereferenceable(25) %0, i32 noundef %1, i32 noundef %2) #4 comdat align 2 {
  %4 = alloca ptr, align 8
  %5 = alloca i32, align 4
  %6 = alloca i32, align 4
  store ptr %0, ptr %4, align 8, !tbaa !91
  store i32 %1, ptr %5, align 4, !tbaa !32
  store i32 %2, ptr %6, align 4, !tbaa !32
  %7 = load ptr, ptr %4, align 8
  %8 = getelementptr inbounds nuw %"struct.faiss::nsg::Graph", ptr %7, i32 0, i32 1
  %9 = load ptr, ptr %8, align 8, !tbaa !203
  %10 = load i32, ptr %5, align 4, !tbaa !32
  %11 = getelementptr inbounds nuw %"struct.faiss::nsg::Graph", ptr %7, i32 0, i32 2
  %12 = load i32, ptr %11, align 8, !tbaa !92
  %13 = mul nsw i32 %10, %12
  %14 = load i32, ptr %6, align 4, !tbaa !32
  %15 = add nsw i32 %13, %14
  %16 = sext i32 %15 to i64
  %17 = getelementptr inbounds i32, ptr %9, i64 %16
  ret ptr %17
}

; Function Attrs: mustprogress nounwind uwtable
define linkonce_odr noundef ptr @_ZNKSt19__shared_ptr_accessIN5faiss3nsg5GraphIiEELN9__gnu_cxx12_Lock_policyE2ELb0ELb0EEptEv(ptr noundef nonnull align 1 dereferenceable(1) %0) #1 comdat align 2 {
  %2 = alloca ptr, align 8
  store ptr %0, ptr %2, align 8, !tbaa !101
  %3 = load ptr, ptr %2, align 8
  %4 = call noundef ptr @_ZNKSt19__shared_ptr_accessIN5faiss3nsg5GraphIiEELN9__gnu_cxx12_Lock_policyE2ELb0ELb0EE6_M_getEv(ptr noundef nonnull align 1 dereferenceable(1) %3) #20
  ret ptr %4
}

; Function Attrs: inlinehint mustprogress nounwind uwtable
define linkonce_odr noundef nonnull align 4 dereferenceable(8) ptr @_ZN5faiss3nsg5GraphINS0_4NodeEE2atEii(ptr noundef nonnull align 8 dereferenceable(25) %0, i32 noundef %1, i32 noundef %2) #4 comdat align 2 {
  %4 = alloca ptr, align 8
  %5 = alloca i32, align 4
  %6 = alloca i32, align 4
  store ptr %0, ptr %4, align 8, !tbaa !213
  store i32 %1, ptr %5, align 4, !tbaa !32
  store i32 %2, ptr %6, align 4, !tbaa !32
  %7 = load ptr, ptr %4, align 8
  %8 = getelementptr inbounds nuw %"struct.faiss::nsg::Graph.20", ptr %7, i32 0, i32 1
  %9 = load ptr, ptr %8, align 8, !tbaa !219
  %10 = load i32, ptr %5, align 4, !tbaa !32
  %11 = getelementptr inbounds nuw %"struct.faiss::nsg::Graph.20", ptr %7, i32 0, i32 2
  %12 = load i32, ptr %11, align 8, !tbaa !215
  %13 = mul nsw i32 %10, %12
  %14 = load i32, ptr %6, align 4, !tbaa !32
  %15 = add nsw i32 %13, %14
  %16 = sext i32 %15 to i64
  %17 = getelementptr inbounds %"struct.faiss::nsg::Node", ptr %9, i64 %16
  ret ptr %17
}

; Function Attrs: alwaysinline norecurse nounwind uwtable
define internal void @_ZN5faiss3NSG5buildEPNS_5IndexElRKNS_3nsg5GraphIlEEb.omp_outlined(ptr noalias noundef %0, ptr noalias noundef %1, ptr noundef nonnull align 8 dereferenceable(8) %2, ptr noundef %3, ptr noundef nonnull align 8 dereferenceable(25) %4, ptr noundef nonnull align 8 dereferenceable(24) %5) #19 personality ptr @__gxx_personality_v0 {
  %7 = alloca ptr, align 8
  %8 = alloca ptr, align 8
  %9 = alloca ptr, align 8
  %10 = alloca ptr, align 8
  %11 = alloca ptr, align 8
  %12 = alloca ptr, align 8
  %13 = alloca i32, align 4
  %14 = alloca i64, align 8
  %15 = alloca i32, align 4
  %16 = alloca i32, align 4
  %17 = alloca i32, align 4
  %18 = alloca i32, align 4
  %19 = alloca i32, align 4
  %20 = alloca i32, align 4
  %21 = alloca i32, align 4
  %22 = alloca i32, align 4
  %23 = alloca i32, align 4
  %24 = alloca i32, align 4
  store ptr %0, ptr %7, align 8, !tbaa !61
  store ptr %1, ptr %8, align 8, !tbaa !61
  store ptr %2, ptr %9, align 8, !tbaa !64
  store ptr %3, ptr %10, align 8, !tbaa !30
  store ptr %4, ptr %11, align 8, !tbaa !213
  store ptr %5, ptr %12, align 8, !tbaa !144
  %25 = load ptr, ptr %9, align 8, !tbaa !64
  %26 = load ptr, ptr %10, align 8, !tbaa !30
  %27 = load ptr, ptr %11, align 8, !tbaa !213
  %28 = load ptr, ptr %12, align 8, !tbaa !144
  call void @llvm.lifetime.start.p0(i64 4, ptr %13) #20
  call void @llvm.lifetime.start.p0(i64 8, ptr %14) #20
  %29 = load i64, ptr %25, align 8, !tbaa !28
  store i64 %29, ptr %14, align 8, !tbaa !28
  call void @llvm.lifetime.start.p0(i64 4, ptr %15) #20
  %30 = load i64, ptr %14, align 8, !tbaa !28
  %31 = sub nsw i64 %30, 0
  %32 = sdiv i64 %31, 1
  %33 = trunc i64 %32 to i32
  %34 = sub nsw i32 %33, 1
  store i32 %34, ptr %15, align 4, !tbaa !32
  call void @llvm.lifetime.start.p0(i64 4, ptr %16) #20
  store i32 0, ptr %16, align 4, !tbaa !32
  call void @llvm.lifetime.end.p0(i64 4, ptr %16) #20
  %35 = load i64, ptr %14, align 8, !tbaa !28
  %36 = icmp slt i64 0, %35
  br i1 %36, label %37, label %102

37:                                               ; preds = %6
  call void @llvm.lifetime.start.p0(i64 4, ptr %17) #20
  store i32 0, ptr %17, align 4, !tbaa !32
  call void @llvm.lifetime.start.p0(i64 4, ptr %18) #20
  %38 = load i32, ptr %15, align 4, !tbaa !32
  store i32 %38, ptr %18, align 4, !tbaa !32
  call void @llvm.lifetime.start.p0(i64 4, ptr %19) #20
  store i32 1, ptr %19, align 4, !tbaa !32
  call void @llvm.lifetime.start.p0(i64 4, ptr %20) #20
  store i32 0, ptr %20, align 4, !tbaa !32
  call void @llvm.lifetime.start.p0(i64 4, ptr %21) #20
  %39 = load ptr, ptr %7, align 8
  %40 = load i32, ptr %39, align 4, !tbaa !32
  call void @__kmpc_for_static_init_4(ptr @1, i32 %40, i32 34, ptr %20, ptr %17, ptr %18, ptr %19, i32 1, i32 1)
  %41 = load i32, ptr %18, align 4, !tbaa !32
  %42 = load i32, ptr %15, align 4, !tbaa !32
  %43 = icmp sgt i32 %41, %42
  br i1 %43, label %44, label %46

44:                                               ; preds = %37
  %45 = load i32, ptr %15, align 4, !tbaa !32
  br label %48

46:                                               ; preds = %37
  %47 = load i32, ptr %18, align 4, !tbaa !32
  br label %48

48:                                               ; preds = %46, %44
  %49 = phi i32 [ %45, %44 ], [ %47, %46 ]
  store i32 %49, ptr %18, align 4, !tbaa !32
  %50 = load i32, ptr %17, align 4, !tbaa !32
  store i32 %50, ptr %13, align 4, !tbaa !32
  br label %51

51:                                               ; preds = %95, %48
  %52 = load i32, ptr %13, align 4, !tbaa !32
  %53 = load i32, ptr %18, align 4, !tbaa !32
  %54 = icmp sle i32 %52, %53
  br i1 %54, label %56, label %55

55:                                               ; preds = %51
  br label %98

56:                                               ; preds = %51
  %57 = load i32, ptr %13, align 4, !tbaa !32
  %58 = mul nsw i32 %57, 1
  %59 = add nsw i32 0, %58
  store i32 %59, ptr %21, align 4, !tbaa !32
  call void @llvm.lifetime.start.p0(i64 4, ptr %22) #20
  store i32 0, ptr %22, align 4, !tbaa !32
  call void @llvm.lifetime.start.p0(i64 4, ptr %23) #20
  store i32 0, ptr %23, align 4, !tbaa !32
  br label %60

60:                                               ; preds = %90, %56
  %61 = load i32, ptr %23, align 4, !tbaa !32
  %62 = getelementptr inbounds nuw %"struct.faiss::NSG", ptr %26, i32 0, i32 1
  %63 = load i32, ptr %62, align 4, !tbaa !42
  %64 = icmp slt i32 %61, %63
  br i1 %64, label %66, label %65

65:                                               ; preds = %60
  call void @llvm.lifetime.end.p0(i64 4, ptr %23) #20
  br label %93

66:                                               ; preds = %60
  call void @llvm.lifetime.start.p0(i64 4, ptr %24) #20
  %67 = load i32, ptr %21, align 4, !tbaa !32
  %68 = load i32, ptr %23, align 4, !tbaa !32
  %69 = invoke noundef nonnull align 4 dereferenceable(8) ptr @_ZN5faiss3nsg5GraphINS0_4NodeEE2atEii(ptr noundef nonnull align 8 dereferenceable(25) %27, i32 noundef %67, i32 noundef %68)
          to label %70 unwind label %103

70:                                               ; preds = %66
  %71 = getelementptr inbounds nuw %"struct.faiss::nsg::Node", ptr %69, i32 0, i32 0
  %72 = load i32, ptr %71, align 4, !tbaa !222
  store i32 %72, ptr %24, align 4, !tbaa !32
  %73 = load i32, ptr %24, align 4, !tbaa !32
  %74 = icmp ne i32 %73, -1
  br i1 %74, label %75, label %85

75:                                               ; preds = %70
  %76 = load i32, ptr %24, align 4, !tbaa !32
  %77 = getelementptr inbounds nuw %"struct.faiss::NSG", ptr %26, i32 0, i32 6
  %78 = call noundef ptr @_ZNKSt19__shared_ptr_accessIN5faiss3nsg5GraphIiEELN9__gnu_cxx12_Lock_policyE2ELb0ELb0EEptEv(ptr noundef nonnull align 1 dereferenceable(1) %77) #20
  %79 = load i32, ptr %21, align 4, !tbaa !32
  %80 = load i32, ptr %22, align 4, !tbaa !32
  %81 = invoke noundef nonnull align 4 dereferenceable(4) ptr @_ZN5faiss3nsg5GraphIiE2atEii(ptr noundef nonnull align 8 dereferenceable(25) %78, i32 noundef %79, i32 noundef %80)
          to label %82 unwind label %103

82:                                               ; preds = %75
  store i32 %76, ptr %81, align 4, !tbaa !32
  %83 = load i32, ptr %22, align 4, !tbaa !32
  %84 = add nsw i32 %83, 1
  store i32 %84, ptr %22, align 4, !tbaa !32
  br label %85

85:                                               ; preds = %82, %70
  %86 = load i32, ptr %22, align 4, !tbaa !32
  %87 = load i32, ptr %21, align 4, !tbaa !32
  %88 = sext i32 %87 to i64
  %89 = call noundef nonnull align 4 dereferenceable(4) ptr @_ZNSt6vectorIiSaIiEEixEm(ptr noundef nonnull align 8 dereferenceable(24) %28, i64 noundef %88) #20
  store i32 %86, ptr %89, align 4, !tbaa !32
  call void @llvm.lifetime.end.p0(i64 4, ptr %24) #20
  br label %90

90:                                               ; preds = %85
  %91 = load i32, ptr %23, align 4, !tbaa !32
  %92 = add nsw i32 %91, 1
  store i32 %92, ptr %23, align 4, !tbaa !32
  br label %60, !llvm.loop !224

93:                                               ; preds = %65
  call void @llvm.lifetime.end.p0(i64 4, ptr %22) #20
  br label %94

94:                                               ; preds = %93
  br label %95

95:                                               ; preds = %94
  %96 = load i32, ptr %13, align 4, !tbaa !32
  %97 = add nsw i32 %96, 1
  store i32 %97, ptr %13, align 4, !tbaa !32
  br label %51

98:                                               ; preds = %55
  br label %99

99:                                               ; preds = %98
  %100 = load ptr, ptr %7, align 8
  %101 = load i32, ptr %100, align 4, !tbaa !32
  call void @__kmpc_for_static_fini(ptr @1, i32 %101)
  call void @llvm.lifetime.end.p0(i64 4, ptr %21) #20
  call void @llvm.lifetime.end.p0(i64 4, ptr %20) #20
  call void @llvm.lifetime.end.p0(i64 4, ptr %19) #20
  call void @llvm.lifetime.end.p0(i64 4, ptr %18) #20
  call void @llvm.lifetime.end.p0(i64 4, ptr %17) #20
  br label %102

102:                                              ; preds = %99, %6
  call void @llvm.lifetime.end.p0(i64 4, ptr %15) #20
  call void @llvm.lifetime.end.p0(i64 8, ptr %14) #20
  call void @llvm.lifetime.end.p0(i64 4, ptr %13) #20
  ret void

103:                                              ; preds = %75, %66
  %104 = landingpad { ptr, i32 }
          catch ptr null
  %105 = extractvalue { ptr, i32 } %104, 0
  call void @__clang_call_terminate(ptr %105) #24
  unreachable
}