; Function Attrs: alwaysinline norecurse nounwind uwtable
define internal void @_ZN5faiss3NSG5buildEPNS_5IndexElRKNS_3nsg5GraphIlEEb.omp_outlined(ptr noalias noundef readonly captures(none) %0, ptr noalias readnone captures(none) %1, ptr noundef nonnull readonly align 8 captures(none) dereferenceable(8) %2, ptr noundef readonly captures(none) %3, ptr noundef nonnull readonly align 8 captures(none) dereferenceable(25) %4, ptr noundef nonnull readonly align 8 captures(none) dereferenceable(24) %5) #17 personality ptr @__gxx_personality_v0 {
  %7 = alloca i32, align 4
  %8 = alloca i32, align 4
  %9 = alloca i32, align 4
  %10 = alloca i32, align 4
  %11 = load i64, ptr %2, align 8, !tbaa !57
  %12 = icmp sgt i64 %11, 0
  br i1 %12, label %13, label %59

13:                                               ; preds = %6
  %14 = trunc i64 %11 to i32
  %15 = add nsw i32 %14, -1
  call void @llvm.lifetime.start.p0(i64 4, ptr nonnull %7) #18
  store i32 0, ptr %7, align 4, !tbaa !35
  call void @llvm.lifetime.start.p0(i64 4, ptr nonnull %8) #18
  store i32 %15, ptr %8, align 4, !tbaa !35
  call void @llvm.lifetime.start.p0(i64 4, ptr nonnull %9) #18
  store i32 1, ptr %9, align 4, !tbaa !35
  call void @llvm.lifetime.start.p0(i64 4, ptr nonnull %10) #18
  store i32 0, ptr %10, align 4, !tbaa !35
  %16 = load i32, ptr %0, align 4, !tbaa !35
  call void @__kmpc_for_static_init_4(ptr nonnull @1, i32 %16, i32 34, ptr nonnull %10, ptr nonnull %7, ptr nonnull %8, ptr nonnull %9, i32 1, i32 1)
  %17 = load i32, ptr %8, align 4, !tbaa !35
  %18 = call i32 @llvm.smin.i32(i32 %17, i32 %15)
  store i32 %18, ptr %8, align 4, !tbaa !35
  %19 = load i32, ptr %7, align 4, !tbaa !35
  %.not30 = icmp sgt i32 %19, %18
  br i1 %.not30, label %._crit_edge32, label %.preheader.lr.ph

.preheader.lr.ph:                                 ; preds = %13
  %20 = getelementptr inbounds nuw i8, ptr %3, i64 4
  %21 = getelementptr inbounds nuw i8, ptr %4, i64 8
  %22 = load ptr, ptr %21, align 8
  %23 = getelementptr inbounds nuw i8, ptr %4, i64 16
  %24 = getelementptr inbounds nuw i8, ptr %3, i64 24
  %25 = load ptr, ptr %5, align 8
  %26 = load i32, ptr %20, align 4, !tbaa !30
  %27 = icmp sgt i32 %26, 0
  br i1 %27, label %.preheader.preheader, label %._crit_edge32

.preheader.preheader:                             ; preds = %.preheader.lr.ph
  %28 = sext i32 %19 to i64
  br label %.preheader

.preheader:                                       ; preds = %.preheader.preheader, %._crit_edge
  %29 = phi i32 [ %18, %.preheader.preheader ], [ %34, %._crit_edge ]
  %30 = phi i32 [ %26, %.preheader.preheader ], [ %35, %._crit_edge ]
  %indvars.iv = phi i64 [ %28, %.preheader.preheader ], [ %indvars.iv.next, %._crit_edge ]
  %31 = icmp sgt i32 %30, 0
  br i1 %31, label %.lr.ph, label %._crit_edge

.lr.ph:                                           ; preds = %.preheader
  %32 = getelementptr inbounds nuw i32, ptr %25, i64 %indvars.iv
  %33 = trunc nsw i64 %indvars.iv to i32
  br label %37

._crit_edge.loopexit:                             ; preds = %55
  %.pre = load i32, ptr %8, align 4, !tbaa !35
  br label %._crit_edge

._crit_edge:                                      ; preds = %._crit_edge.loopexit, %.preheader
  %34 = phi i32 [ %.pre, %._crit_edge.loopexit ], [ %29, %.preheader ]
  %35 = phi i32 [ %57, %._crit_edge.loopexit ], [ %30, %.preheader ]
  %indvars.iv.next = add nsw i64 %indvars.iv, 1
  %36 = sext i32 %34 to i64
  %.not.not = icmp slt i64 %indvars.iv, %36
  br i1 %.not.not, label %.preheader, label %._crit_edge32, !llvm.loop !132

37:                                               ; preds = %.lr.ph, %55
  %.02429 = phi i32 [ 0, %.lr.ph ], [ %56, %55 ]
  %.02528 = phi i32 [ 0, %.lr.ph ], [ %.1, %55 ]
  %38 = load i32, ptr %23, align 8, !tbaa !99
  %39 = mul nsw i32 %38, %33
  %40 = add nsw i32 %39, %.02429
  %41 = sext i32 %40 to i64
  %42 = getelementptr inbounds %"struct.faiss::nsg::Node", ptr %22, i64 %41
  %43 = load i32, ptr %42, align 4, !tbaa !134
  %.not27 = icmp eq i32 %43, -1
  br i1 %.not27, label %55, label %44

44:                                               ; preds = %37
  %45 = load ptr, ptr %24, align 8, !tbaa !45
  %46 = getelementptr inbounds nuw i8, ptr %45, i64 8
  %47 = load ptr, ptr %46, align 8, !tbaa !112
  %48 = getelementptr inbounds nuw i8, ptr %45, i64 16
  %49 = load i32, ptr %48, align 8, !tbaa !62
  %50 = mul nsw i32 %49, %33
  %51 = add nsw i32 %50, %.02528
  %52 = sext i32 %51 to i64
  %53 = getelementptr inbounds i32, ptr %47, i64 %52
  store i32 %43, ptr %53, align 4, !tbaa !35
  %54 = add nsw i32 %.02528, 1
  br label %55

55:                                               ; preds = %44, %37
  %.1 = phi i32 [ %54, %44 ], [ %.02528, %37 ]
  store i32 %.1, ptr %32, align 4, !tbaa !35
  %56 = add nuw nsw i32 %.02429, 1
  %57 = load i32, ptr %20, align 4, !tbaa !30
  %58 = icmp slt i32 %56, %57
  br i1 %58, label %37, label %._crit_edge.loopexit, !llvm.loop !136

._crit_edge32:                                    ; preds = %._crit_edge, %.preheader.lr.ph, %13
  call void @__kmpc_for_static_fini(ptr nonnull @1, i32 %16)
  call void @llvm.lifetime.end.p0(i64 4, ptr nonnull %10) #18
  call void @llvm.lifetime.end.p0(i64 4, ptr nonnull %9) #18
  call void @llvm.lifetime.end.p0(i64 4, ptr nonnull %8) #18
  call void @llvm.lifetime.end.p0(i64 4, ptr nonnull %7) #18
  br label %59

59:                                               ; preds = %._crit_edge32, %6
  ret void
}